; Function Attrs: mustprogress nofree norecurse nosync nounwind willreturn memory(argmem: read) uwtable
define internal noundef zeroext i1 @"_ZNSt17_Function_handlerIFbRKN4llvm5MachO6TargetEEZNKS1_6Symbol7targetsENS1_15ArchitectureSetEE3$_0E9_M_invokeERKSt9_Any_dataS4_"(ptr nocapture noundef nonnull readonly align 8 dereferenceable(16) %0, ptr nocapture noundef nonnull readonly align 4 dereferenceable(24) %1) #5 align 2 {
  %.val = load i32, ptr %0, align 8
  %.val2 = load i8, ptr %1, align 4
  %3 = zext nneg i8 %.val2 to i32
  %4 = shl nuw i32 1, %3
  %5 = and i32 %4, %.val
  %6 = icmp ne i32 %5, 0
  ret i1 %6
}